; Function Attrs: mustprogress uwtable
define hidden void @_ZN2dd11pdd_manager9subst_valERKNS_3pddEjRK8rational(ptr dead_on_unwind noalias writable writeonly sret(%"class.dd::pdd") align 8 captures(none) %0, ptr noundef nonnull align 8 dereferenceable(952) %1, ptr noundef nonnull readonly align 8 captures(none) dereferenceable(16) %2, i32 noundef %3, ptr noundef nonnull align 8 dereferenceable(32) %4) local_unnamed_addr #3 align 2 personality ptr @__gxx_personality_v0 {
  %6 = alloca %"class.dd::pdd", align 8
  %7 = alloca %"class.dd::pdd", align 8
  call void @llvm.lifetime.start.p0(i64 16, ptr nonnull %6) #29
  call void @llvm.lifetime.start.p0(i64 16, ptr nonnull %7) #29
  tail call void @llvm.experimental.noalias.scope.decl(metadata !172)
  tail call void @_ZN2dd11pdd_manager11reserve_varEj(ptr noundef nonnull align 8 dereferenceable(952) %1, i32 noundef %3), !noalias !172
  %8 = getelementptr inbounds nuw i8, ptr %1, i64 128
  %9 = load ptr, ptr %8, align 8, !tbaa !53, !noalias !172
  %10 = zext i32 %3 to i64
  %11 = getelementptr inbounds nuw i32, ptr %9, i64 %10
  %12 = load i32, ptr %11, align 4, !tbaa !83, !noalias !172
  store i32 %12, ptr %7, align 8, !tbaa !119, !alias.scope !172
  %13 = getelementptr inbounds nuw i8, ptr %7, i64 8
  store ptr %1, ptr %13, align 8, !tbaa !122, !alias.scope !172
  %14 = load ptr, ptr %1, align 8, !tbaa !91, !noalias !172
  %15 = zext i32 %12 to i64
  %16 = getelementptr inbounds nuw %"struct.dd::pdd_manager::node", ptr %14, i64 %15
  %17 = load i32, ptr %16, align 4, !noalias !172
  %18 = and i32 %17, 1023
  %.not.i.i.i = icmp eq i32 %18, 1023
  br i1 %.not.i.i.i, label %_ZN2dd11pdd_manager6mk_varEj.exit, label %19

19:                                               ; preds = %5
  %20 = add i32 %17, 1
  %21 = and i32 %20, 1023
  %22 = and i32 %17, -1024
  %23 = or disjoint i32 %21, %22
  store i32 %23, ptr %16, align 4, !noalias !172
  br label %_ZN2dd11pdd_manager6mk_varEj.exit

_ZN2dd11pdd_manager6mk_varEj.exit:                ; preds = %5, %19
  invoke void @_ZN2dd11pdd_manager3addERK8rationalRKNS_3pddE(ptr dead_on_unwind nonnull writable sret(%"class.dd::pdd") align 8 %6, ptr noundef nonnull align 8 dereferenceable(952) %1, ptr noundef nonnull align 8 dereferenceable(32) %4, ptr noundef nonnull align 8 dereferenceable(16) %7)
          to label %_ZNK2dd3pddplERK8rational.exit unwind label %60

_ZNK2dd3pddplERK8rational.exit:                   ; preds = %_ZN2dd11pdd_manager6mk_varEj.exit
  %24 = load ptr, ptr %1, align 8, !tbaa !91
  %25 = getelementptr inbounds nuw %"struct.dd::pdd_manager::node", ptr %24, i64 %15
  %26 = load i32, ptr %25, align 4
  %27 = and i32 %26, 1023
  %.not.i.i = icmp eq i32 %27, 1023
  br i1 %.not.i.i, label %_ZN2dd3pddD2Ev.exit, label %28

28:                                               ; preds = %_ZNK2dd3pddplERK8rational.exit
  %29 = add i32 %26, 1023
  %30 = and i32 %29, 1023
  %31 = and i32 %26, -1024
  %32 = or disjoint i32 %30, %31
  store i32 %32, ptr %25, align 4
  br label %_ZN2dd3pddD2Ev.exit

_ZN2dd3pddD2Ev.exit:                              ; preds = %_ZNK2dd3pddplERK8rational.exit, %28
  call void @llvm.lifetime.end.p0(i64 16, ptr nonnull %7) #29
  %33 = load i32, ptr %2, align 8, !tbaa !119
  %34 = load i32, ptr %6, align 8, !tbaa !119
  %35 = invoke noundef i32 @_ZN2dd11pdd_manager5applyEjjNS0_6pdd_opE(ptr noundef nonnull align 8 dereferenceable(952) %1, i32 noundef %33, i32 noundef %34, i32 noundef 7)
          to label %36 unwind label %71

36:                                               ; preds = %_ZN2dd3pddD2Ev.exit
  store i32 %35, ptr %0, align 8, !tbaa !119
  %37 = getelementptr inbounds nuw i8, ptr %0, i64 8
  store ptr %1, ptr %37, align 8, !tbaa !122
  %38 = load ptr, ptr %1, align 8, !tbaa !91
  %39 = zext i32 %35 to i64
  %40 = getelementptr inbounds nuw %"struct.dd::pdd_manager::node", ptr %38, i64 %39
  %41 = load i32, ptr %40, align 4
  %42 = and i32 %41, 1023
  %.not.i.i7 = icmp eq i32 %42, 1023
  br i1 %.not.i.i7, label %_ZN2dd3pddC2EjPNS_11pdd_managerE.exit, label %43

43:                                               ; preds = %36
  %44 = add i32 %41, 1
  %45 = and i32 %44, 1023
  %46 = and i32 %41, -1024
  %47 = or disjoint i32 %45, %46
  store i32 %47, ptr %40, align 4
  br label %_ZN2dd3pddC2EjPNS_11pdd_managerE.exit

_ZN2dd3pddC2EjPNS_11pdd_managerE.exit:            ; preds = %43, %36
  %48 = getelementptr inbounds nuw i8, ptr %6, i64 8
  %49 = load ptr, ptr %48, align 8, !tbaa !122
  %50 = load ptr, ptr %49, align 8, !tbaa !91
  %51 = zext i32 %34 to i64
  %52 = getelementptr inbounds nuw %"struct.dd::pdd_manager::node", ptr %50, i64 %51
  %53 = load i32, ptr %52, align 4
  %54 = and i32 %53, 1023
  %.not.i.i8 = icmp eq i32 %54, 1023
  br i1 %.not.i.i8, label %_ZN2dd3pddD2Ev.exit9, label %55

55:                                               ; preds = %_ZN2dd3pddC2EjPNS_11pdd_managerE.exit
  %56 = add i32 %53, 1023
  %57 = and i32 %56, 1023
  %58 = and i32 %53, -1024
  %59 = or disjoint i32 %57, %58
  store i32 %59, ptr %52, align 4
  br label %_ZN2dd3pddD2Ev.exit9

_ZN2dd3pddD2Ev.exit9:                             ; preds = %_ZN2dd3pddC2EjPNS_11pdd_managerE.exit, %55
  call void @llvm.lifetime.end.p0(i64 16, ptr nonnull %6) #29
  ret void

60:                                               ; preds = %_ZN2dd11pdd_manager6mk_varEj.exit
  %61 = landingpad { ptr, i32 }
          cleanup
  %62 = load ptr, ptr %1, align 8, !tbaa !91
  %63 = getelementptr inbounds nuw %"struct.dd::pdd_manager::node", ptr %62, i64 %15
  %64 = load i32, ptr %63, align 4
  %65 = and i32 %64, 1023
  %.not.i.i10 = icmp eq i32 %65, 1023
  br i1 %.not.i.i10, label %_ZN2dd3pddD2Ev.exit11, label %66

66:                                               ; preds = %60
  %67 = add i32 %64, 1023
  %68 = and i32 %67, 1023
  %69 = and i32 %64, -1024
  %70 = or disjoint i32 %68, %69
  store i32 %70, ptr %63, align 4
  br label %_ZN2dd3pddD2Ev.exit11

_ZN2dd3pddD2Ev.exit11:                            ; preds = %60, %66
  call void @llvm.lifetime.end.p0(i64 16, ptr nonnull %7) #29
  br label %_ZN2dd3pddD2Ev.exit13

71:                                               ; preds = %_ZN2dd3pddD2Ev.exit
  %72 = landingpad { ptr, i32 }
          cleanup
  %73 = getelementptr inbounds nuw i8, ptr %6, i64 8
  %74 = load ptr, ptr %73, align 8, !tbaa !122
  %75 = load ptr, ptr %74, align 8, !tbaa !91
  %76 = zext i32 %34 to i64
  %77 = getelementptr inbounds nuw %"struct.dd::pdd_manager::node", ptr %75, i64 %76
  %78 = load i32, ptr %77, align 4
  %79 = and i32 %78, 1023
  %.not.i.i12 = icmp eq i32 %79, 1023
  br i1 %.not.i.i12, label %_ZN2dd3pddD2Ev.exit13, label %80

80:                                               ; preds = %71
  %81 = add i32 %78, 1023
  %82 = and i32 %81, 1023
  %83 = and i32 %78, -1024
  %84 = or disjoint i32 %82, %83
  store i32 %84, ptr %77, align 4
  br label %_ZN2dd3pddD2Ev.exit13

_ZN2dd3pddD2Ev.exit13:                            ; preds = %80, %71, %_ZN2dd3pddD2Ev.exit11
  %.pn = phi { ptr, i32 } [ %61, %_ZN2dd3pddD2Ev.exit11 ], [ %72, %71 ], [ %72, %80 ]
  call void @llvm.lifetime.end.p0(i64 16, ptr nonnull %6) #29
  resume { ptr, i32 } %.pn
}